target datalayout = "e-m:e-p270:32:32-p271:32:32-p272:64:64-i64:64-f80:128-n8:16:32:64-S128"
target triple = "x86_64-pc-linux-gnu"

@.str = private unnamed_addr constant [3 x i8] c"%d\00", align 1
@.str.1 = private unnamed_addr constant [19 x i8] c"%s %d %d %c %c %d\0A\00", align 1
@.str.2 = private unnamed_addr constant [9 x i8] c"%s\0A%d\0A%d\00", align 1

; Function Attrs: noinline nounwind uwtable
define dso_local i32 @main() #0 {
  %1 = alloca i32, align 4
  %2 = alloca i32, align 4
  %3 = alloca i32, align 4
  %4 = alloca i32, align 4
  %5 = alloca i32, align 4
  %6 = alloca [100 x [20 x i8]], align 16
  %7 = alloca [100 x i8], align 16
  %8 = alloca [100 x i8], align 16
  %9 = alloca [100 x i32], align 16
  %10 = alloca [100 x i32], align 16
  %11 = alloca [100 x i32], align 16
  %12 = alloca [100 x i32], align 16
  %13 = alloca i32, align 4
  store i32 0, i32* %1, align 4
  %14 = call i32 (i8*, ...) @__isoc99_scanf(i8* getelementptr inbounds ([3 x i8], [3 x i8]* @.str, i64 0, i64 0), i32* %2)
  %15 = bitcast [100 x i32]* %12 to i8*
  call void @llvm.memset.p0i8.i64(i8* align 16 %15, i8 0, i64 400, i1 false)
  store i32 0, i32* %13, align 4
  store i32 0, i32* %3, align 4
  br label %16

16:                                               ; preds = %41, %0
  %17 = load i32, i32* %3, align 4
  %18 = load i32, i32* %2, align 4
  %19 = icmp slt i32 %17, %18
  br i1 %19, label %20, label %44

20:                                               ; preds = %16
  %21 = load i32, i32* %3, align 4
  %22 = sext i32 %21 to i64
  %23 = getelementptr inbounds [100 x [20 x i8]], [100 x [20 x i8]]* %6, i64 0, i64 %22
  %24 = getelementptr inbounds [20 x i8], [20 x i8]* %23, i64 0, i64 0
  %25 = load i32, i32* %3, align 4
  %26 = sext i32 %25 to i64
  %27 = getelementptr inbounds [100 x i32], [100 x i32]* %9, i64 0, i64 %26
  %28 = load i32, i32* %3, align 4
  %29 = sext i32 %28 to i64
  %30 = getelementptr inbounds [100 x i32], [100 x i32]* %10, i64 0, i64 %29
  %31 = load i32, i32* %3, align 4
  %32 = sext i32 %31 to i64
  %33 = getelementptr inbounds [100 x i8], [100 x i8]* %7, i64 0, i64 %32
  %34 = load i32, i32* %3, align 4
  %35 = sext i32 %34 to i64
  %36 = getelementptr inbounds [100 x i8], [100 x i8]* %8, i64 0, i64 %35
  %37 = load i32, i32* %3, align 4
  %38 = sext i32 %37 to i64
  %39 = getelementptr inbounds [100 x i32], [100 x i32]* %11, i64 0, i64 %38
  %40 = call i32 (i8*, ...) @__isoc99_scanf(i8* getelementptr inbounds ([19 x i8], [19 x i8]* @.str.1, i64 0, i64 0), i8* %24, i32* %27, i32* %30, i8* %33, i8* %36, i32* %39)
  br label %41

41:                                               ; preds = %20
  %42 = load i32, i32* %3, align 4
  %43 = add nsw i32 %42, 1
  store i32 %43, i32* %3, align 4
  br label %16

44:                                               ; preds = %16
  store i32 0, i32* %3, align 4
  br label %45

45:                                               ; preds = %136, %44
  %46 = load i32, i32* %3, align 4
  %47 = load i32, i32* %2, align 4
  %48 = icmp slt i32 %46, %47
  br i1 %48, label %49, label %139

49:                                               ; preds = %45
  %50 = load i32, i32* %3, align 4
  %51 = sext i32 %50 to i64
  %52 = getelementptr inbounds [100 x i32], [100 x i32]* %9, i64 0, i64 %51
  %53 = load i32, i32* %52, align 4
  %54 = icmp sgt i32 %53, 80
  br i1 %54, label %55, label %67

55:                                               ; preds = %49
  %56 = load i32, i32* %3, align 4
  %57 = sext i32 %56 to i64
  %58 = getelementptr inbounds [100 x i32], [100 x i32]* %11, i64 0, i64 %57
  %59 = load i32, i32* %58, align 4
  %60 = icmp sgt i32 %59, 0
  br i1 %60, label %61, label %67

61:                                               ; preds = %55
  %62 = load i32, i32* %3, align 4
  %63 = sext i32 %62 to i64
  %64 = getelementptr inbounds [100 x i32], [100 x i32]* %12, i64 0, i64 %63
  %65 = load i32, i32* %64, align 4
  %66 = add nsw i32 %65, 8000
  store i32 %66, i32* %64, align 4
  br label %67

67:                                               ; preds = %61, %55, %49
  %68 = load i32, i32* %3, align 4
  %69 = sext i32 %68 to i64
  %70 = getelementptr inbounds [100 x i32], [100 x i32]* %9, i64 0, i64 %69
  %71 = load i32, i32* %70, align 4
  %72 = icmp sgt i32 %71, 85
  br i1 %72, label %73, label %85

73:                                               ; preds = %67
  %74 = load i32, i32* %3, align 4
  %75 = sext i32 %74 to i64
  %76 = getelementptr inbounds [100 x i32], [100 x i32]* %10, i64 0, i64 %75
  %77 = load i32, i32* %76, align 4
  %78 = icmp sgt i32 %77, 80
  br i1 %78, label %79, label %85

79:                                               ; preds = %73
  %80 = load i32, i32* %3, align 4
  %81 = sext i32 %80 to i64
  %82 = getelementptr inbounds [100 x i32], [100 x i32]* %12, i64 0, i64 %81
  %83 = load i32, i32* %82, align 4
  %84 = add nsw i32 %83, 4000
  store i32 %84, i32* %82, align 4
  br label %85

85:                                               ; preds = %79, %73, %67
  %86 = load i32, i32* %3, align 4
  %87 = sext i32 %86 to i64
  %88 = getelementptr inbounds [100 x i32], [100 x i32]* %9, i64 0, i64 %87
  %89 = load i32, i32* %88, align 4
  %90 = icmp sgt i32 %89, 90
  br i1 %90, label %91, label %97

91:                                               ; preds = %85
  %92 = load i32, i32* %3, align 4
  %93 = sext i32 %92 to i64
  %94 = getelementptr inbounds [100 x i32], [100 x i32]* %12, i64 0, i64 %93
  %95 = load i32, i32* %94, align 4
  %96 = add nsw i32 %95, 2000
  store i32 %96, i32* %94, align 4
  br label %97

97:                                               ; preds = %91, %85
  %98 = load i32, i32* %3, align 4
  %99 = sext i32 %98 to i64
  %100 = getelementptr inbounds [100 x i32], [100 x i32]* %9, i64 0, i64 %99
  %101 = load i32, i32* %100, align 4
  %102 = icmp sgt i32 %101, 85
  br i1 %102, label %103, label %116

103:                                              ; preds = %97
  %104 = load i32, i32* %3, align 4
  %105 = sext i32 %104 to i64
  %106 = getelementptr inbounds [100 x i8], [100 x i8]* %8, i64 0, i64 %105
  %107 = load i8, i8* %106, align 1
  %108 = sext i8 %107 to i32
  %109 = icmp eq i32 %108, 89
  br i1 %109, label %110, label %116

110:                                              ; preds = %103
  %111 = load i32, i32* %3, align 4
  %112 = sext i32 %111 to i64
  %113 = getelementptr inbounds [100 x i32], [100 x i32]* %12, i64 0, i64 %112
  %114 = load i32, i32* %113, align 4
  %115 = add nsw i32 %114, 1000
  store i32 %115, i32* %113, align 4
  br label %116

116:                                              ; preds = %110, %103, %97
  %117 = load i32, i32* %3, align 4
  %118 = sext i32 %117 to i64
  %119 = getelementptr inbounds [100 x i32], [100 x i32]* %10, i64 0, i64 %118
  %120 = load i32, i32* %119, align 4
  %121 = icmp sgt i32 %120, 80
  br i1 %121, label %122, label %135

122:                                              ; preds = %116
  %123 = load i32, i32* %3, align 4
  %124 = sext i32 %123 to i64
  %125 = getelementptr inbounds [100 x i8], [100 x i8]* %7, i64 0, i64 %124
  %126 = load i8, i8* %125, align 1
  %127 = sext i8 %126 to i32
  %128 = icmp eq i32 %127, 89
  br i1 %128, label %129, label %135

129:                                              ; preds = %122
  %130 = load i32, i32* %3, align 4
  %131 = sext i32 %130 to i64
  %132 = getelementptr inbounds [100 x i32], [100 x i32]* %12, i64 0, i64 %131
  %133 = load i32, i32* %132, align 4
  %134 = add nsw i32 %133, 850
  store i32 %134, i32* %132, align 4
  br label %135

135:                                              ; preds = %129, %122, %116
  br label %136

136:                                              ; preds = %135
  %137 = load i32, i32* %3, align 4
  %138 = add nsw i32 %137, 1
  store i32 %138, i32* %3, align 4
  br label %45

139:                                              ; preds = %45
  store i32 0, i32* %3, align 4
  br label %140

140:                                              ; preds = %151, %139
  %141 = load i32, i32* %3, align 4
  %142 = load i32, i32* %2, align 4
  %143 = icmp slt i32 %141, %142
  br i1 %143, label %144, label %154

144:                                              ; preds = %140
  %145 = load i32, i32* %3, align 4
  %146 = sext i32 %145 to i64
  %147 = getelementptr inbounds [100 x i32], [100 x i32]* %12, i64 0, i64 %146
  %148 = load i32, i32* %147, align 4
  %149 = load i32, i32* %13, align 4
  %150 = add nsw i32 %149, %148
  store i32 %150, i32* %13, align 4
  br label %151

151:                                              ; preds = %144
  %152 = load i32, i32* %3, align 4
  %153 = add nsw i32 %152, 1
  store i32 %153, i32* %3, align 4
  br label %140

154:                                              ; preds = %140
  %155 = getelementptr inbounds [100 x i32], [100 x i32]* %12, i64 0, i64 0
  %156 = load i32, i32* %155, align 16
  store i32 %156, i32* %4, align 4
  store i32 0, i32* %5, align 4
  store i32 0, i32* %3, align 4
  br label %157

157:                                              ; preds = %175, %154
  %158 = load i32, i32* %3, align 4
  %159 = load i32, i32* %2, align 4
  %160 = icmp slt i32 %158, %159
  br i1 %160, label %161, label %178

161:                                              ; preds = %157
  %162 = load i32, i32* %4, align 4
  %163 = load i32, i32* %3, align 4
  %164 = sext i32 %163 to i64
  %165 = getelementptr inbounds [100 x i32], [100 x i32]* %12, i64 0, i64 %164
  %166 = load i32, i32* %165, align 4
  %167 = icmp slt i32 %162, %166
  br i1 %167, label %168, label %174

168:                                              ; preds = %161
  %169 = load i32, i32* %3, align 4
  store i32 %169, i32* %5, align 4
  %170 = load i32, i32* %3, align 4
  %171 = sext i32 %170 to i64
  %172 = getelementptr inbounds [100 x i32], [100 x i32]* %12, i64 0, i64 %171
  %173 = load i32, i32* %172, align 4
  store i32 %173, i32* %4, align 4
  br label %174

174:                                              ; preds = %168, %161
  br label %175

175:                                              ; preds = %174
  %176 = load i32, i32* %3, align 4
  %177 = add nsw i32 %176, 1
  store i32 %177, i32* %3, align 4
  br label %157

178:                                              ; preds = %157
  %179 = load i32, i32* %5, align 4
  %180 = sext i32 %179 to i64
  %181 = getelementptr inbounds [100 x [20 x i8]], [100 x [20 x i8]]* %6, i64 0, i64 %180
  %182 = getelementptr inbounds [20 x i8], [20 x i8]* %181, i64 0, i64 0
  %183 = load i32, i32* %4, align 4
  %184 = load i32, i32* %13, align 4
  %185 = call i32 (i8*, ...) @printf(i8* getelementptr inbounds ([9 x i8], [9 x i8]* @.str.2, i64 0, i64 0), i8* %182, i32 %183, i32 %184)
  ret i32 0
}